; Function Attrs: mustprogress uwtable
define void @_ZN7rocksdb21EncryptedWritableFile9RangeSyncEmmRKNS_9IOOptionsEPNS_14IODebugContextE(ptr dead_on_unwind noalias writable sret(%"class.rocksdb::IOStatus") align 8 %0, ptr noundef nonnull readonly align 8 captures(none) dereferenceable(64) %1, i64 noundef %2, i64 noundef %3, ptr noundef nonnull align 8 dereferenceable(84) %4, ptr noundef %5) unnamed_addr #3 align 2 {
  %7 = getelementptr inbounds nuw i8, ptr %1, i64 40
  %8 = load ptr, ptr %7, align 8, !tbaa !108
  %9 = getelementptr inbounds nuw i8, ptr %1, i64 56
  %10 = load i64, ptr %9, align 8, !tbaa !133
  %11 = add i64 %10, %2
  %12 = load ptr, ptr %8, align 8, !tbaa !13
  %13 = getelementptr inbounds nuw i8, ptr %12, i64 184
  %14 = load ptr, ptr %13, align 8
  tail call void %14(ptr dead_on_unwind writable sret(%"class.rocksdb::IOStatus") align 8 %0, ptr noundef nonnull align 8 dereferenceable(33) %8, i64 noundef %11, i64 noundef %3, ptr noundef nonnull align 8 dereferenceable(84) %4, ptr noundef %5)
  ret void
}